; Function Attrs: nounwind uwtable
define dso_local range(i32 -2147483648, 1) i32 @fdt_appendprop(ptr noundef %0, i32 noundef %1, ptr noundef %2, ptr noundef readonly captures(none) %3, i32 noundef %4) local_unnamed_addr #0 {
  %6 = alloca ptr, align 8
  %7 = alloca i32, align 4
  call void @llvm.lifetime.start.p0(i64 8, ptr nonnull %6) #9
  call void @llvm.lifetime.start.p0(i64 4, ptr nonnull %7) #9
  %8 = tail call i32 @fdt_ro_probe_(ptr noundef %0) #9
  %9 = icmp sgt i32 %8, -1
  br i1 %9, label %10, label %fdt_rw_probe_.exit.thread

10:                                               ; preds = %5
  %11 = getelementptr inbounds nuw i8, ptr %0, i64 20
  %12 = load i8, ptr %11, align 1
  %13 = zext i8 %12 to i32
  %14 = shl nuw i32 %13, 24
  %15 = getelementptr inbounds nuw i8, ptr %0, i64 21
  %16 = load i8, ptr %15, align 1
  %17 = zext i8 %16 to i32
  %18 = shl nuw nsw i32 %17, 16
  %19 = or disjoint i32 %18, %14
  %20 = getelementptr inbounds nuw i8, ptr %0, i64 22
  %21 = load i8, ptr %20, align 1
  %22 = zext i8 %21 to i32
  %23 = shl nuw nsw i32 %22, 8
  %24 = or disjoint i32 %19, %23
  %25 = getelementptr inbounds nuw i8, ptr %0, i64 23
  %26 = load i8, ptr %25, align 1
  %27 = zext i8 %26 to i32
  %28 = or disjoint i32 %24, %27
  %29 = icmp ult i32 %28, 17
  br i1 %29, label %fdt_rw_probe_.exit.thread, label %30

30:                                               ; preds = %10
  %31 = getelementptr inbounds nuw i8, ptr %0, i64 36
  %32 = load i8, ptr %31, align 1
  %33 = zext i8 %32 to i32
  %34 = shl nuw i32 %33, 24
  %35 = getelementptr inbounds nuw i8, ptr %0, i64 37
  %36 = load i8, ptr %35, align 1
  %37 = zext i8 %36 to i32
  %38 = shl nuw nsw i32 %37, 16
  %39 = or disjoint i32 %38, %34
  %40 = getelementptr inbounds nuw i8, ptr %0, i64 38
  %41 = load i8, ptr %40, align 1
  %42 = zext i8 %41 to i32
  %43 = shl nuw nsw i32 %42, 8
  %44 = or disjoint i32 %39, %43
  %45 = getelementptr inbounds nuw i8, ptr %0, i64 39
  %46 = load i8, ptr %45, align 1
  %47 = zext i8 %46 to i32
  %48 = or disjoint i32 %44, %47
  %49 = tail call fastcc i32 @fdt_blocks_misordered_(ptr noundef nonnull %0, i32 noundef 16, i32 noundef %48)
  %.not.i = icmp eq i32 %49, 0
  br i1 %.not.i, label %50, label %fdt_rw_probe_.exit.thread

50:                                               ; preds = %30
  %.not9.i = icmp eq i32 %28, 17
  br i1 %.not9.i, label %fdt_rw_probe_.exit, label %51

51:                                               ; preds = %50
  store i32 285212672, ptr %11, align 4
  br label %fdt_rw_probe_.exit

fdt_rw_probe_.exit:                               ; preds = %51, %50
  store i32 0, ptr %7, align 4, !annotation !4
  %52 = call ptr @fdt_get_property(ptr noundef nonnull %0, i32 noundef %1, ptr noundef %2, ptr noundef nonnull %7) #9
  store ptr %52, ptr %6, align 8
  %.not26 = icmp eq ptr %52, null
  br i1 %.not26, label %67, label %53

53:                                               ; preds = %fdt_rw_probe_.exit
  %54 = load i32, ptr %7, align 4
  %55 = add i32 %54, %4
  %56 = getelementptr inbounds nuw i8, ptr %52, i64 12
  %57 = add i32 %54, 3
  %58 = and i32 %57, -4
  %59 = add i32 %55, 3
  %60 = and i32 %59, -4
  %61 = call fastcc i32 @fdt_splice_struct_(ptr noundef nonnull %0, ptr noundef nonnull %56, i32 noundef %58, i32 noundef %60)
  %.not28 = icmp eq i32 %61, 0
  br i1 %.not28, label %62, label %fdt_rw_probe_.exit.thread

62:                                               ; preds = %53
  %rev.i = call noundef i32 @llvm.bswap.i32(i32 %55)
  %63 = getelementptr inbounds nuw i8, ptr %52, i64 4
  store i32 %rev.i, ptr %63, align 4
  %64 = load i32, ptr %7, align 4
  %65 = sext i32 %64 to i64
  %66 = getelementptr inbounds i8, ptr %56, i64 %65
  br label %fdt_rw_probe_.exit.thread.sink.split

67:                                               ; preds = %fdt_rw_probe_.exit
  %68 = call fastcc i32 @fdt_add_property_(ptr noundef nonnull %0, i32 noundef %1, ptr noundef %2, i32 noundef %4, ptr noundef %6)
  %.not27 = icmp eq i32 %68, 0
  br i1 %.not27, label %69, label %fdt_rw_probe_.exit.thread

69:                                               ; preds = %67
  %70 = load ptr, ptr %6, align 8
  %71 = getelementptr inbounds nuw i8, ptr %70, i64 12
  br label %fdt_rw_probe_.exit.thread.sink.split

fdt_rw_probe_.exit.thread.sink.split:             ; preds = %69, %62
  %.sink = phi ptr [ %66, %62 ], [ %71, %69 ]
  %72 = sext i32 %4 to i64
  call void @llvm.memcpy.p0.p0.i64(ptr nonnull align 1 %.sink, ptr align 1 %3, i64 %72, i1 false)
  br label %fdt_rw_probe_.exit.thread

fdt_rw_probe_.exit.thread:                        ; preds = %fdt_rw_probe_.exit.thread.sink.split, %30, %10, %5, %67, %53
  %.1 = phi i32 [ %61, %53 ], [ %68, %67 ], [ -12, %30 ], [ -10, %10 ], [ %8, %5 ], [ 0, %fdt_rw_probe_.exit.thread.sink.split ]
  call void @llvm.lifetime.end.p0(i64 4, ptr nonnull %7) #9
  call void @llvm.lifetime.end.p0(i64 8, ptr nonnull %6) #9
  ret i32 %.1
}